target datalayout = "e-m:e-p270:32:32-p271:32:32-p272:64:64-i64:64-i128:128-f80:128-n8:16:32:64-S128"
target triple = "x86_64-pc-linux-gnu"

%struct.slurmd_config = type { ptr, ptr, i32, [4096 x i8], ptr, ptr, ptr, ptr, i16, i16, i16, i16, ptr, i16, i64, i16, i16, i16, i16, i16, i16, i16, i16, i16, i16, i16, i64, i64, i32, i32, i16, ptr, ptr, ptr, i32, ptr, ptr, ptr, ptr, ptr, ptr, ptr, ptr, ptr, ptr, i32, ptr, ptr, i16, i32, i32, %struct.log_options_t, i32, i16, i64, i8, i8, i8, i8, i8, %union.pthread_mutex_t, i16, ptr, %union.pthread_cond_t, ptr, %union.pthread_cond_t, i8, i8, ptr, ptr }
%struct.log_options_t = type { i32, i32, i32, i8, i8, i8, i32 }
%union.pthread_mutex_t = type { %struct.__pthread_mutex_s }
%struct.__pthread_mutex_s = type { i32, i32, i32, i32, i32, i16, i16, %struct.__pthread_internal_list }
%struct.__pthread_internal_list = type { ptr, ptr }
%union.pthread_cond_t = type { %struct.__pthread_cond_s }
%struct.__pthread_cond_s = type { %union.__atomic_wide_counter, %union.__atomic_wide_counter, [2 x i32], [2 x i32], i32, i32, [2 x i32] }
%union.__atomic_wide_counter = type { i64 }

@plugin_type = external constant [0 x i8], align 1
@conf = external global ptr, align 8
@.str.38 = private unnamed_addr constant [33 x i8] c"%s: %s: _lllp_map_abstract_masks\00", align 1
@__func__._lllp_map_abstract_masks = private unnamed_addr constant [25 x i8] c"_lllp_map_abstract_masks\00", align 1
@.str.39 = private unnamed_addr constant [51 x i8] c"can't go from %d -> %d since we only have %ld bits\00", align 1
@.str.40 = private unnamed_addr constant [52 x i8] c"%s: %s: wrapping index %u into block_map_size of %u\00", align 1
@__func__._block_map = private unnamed_addr constant [11 x i8] c"_block_map\00", align 1

; Function Attrs: nounwind uwtable
define internal zeroext i16 @_block_map(i16 noundef zeroext %0, ptr noundef %1) #0 {
  %3 = alloca i16, align 2
  %4 = alloca i16, align 2
  %5 = alloca ptr, align 8
  store i16 %0, ptr %4, align 2
  store ptr %1, ptr %5, align 8
  %6 = load ptr, ptr %5, align 8
  %7 = icmp eq ptr %6, null
  br i1 %7, label %8, label %10

8:                                                ; preds = %2
  %9 = load i16, ptr %4, align 2
  store i16 %9, ptr %3, align 2
  br label %48

10:                                               ; preds = %2
  %11 = load i16, ptr %4, align 2
  %12 = zext i16 %11 to i32
  %13 = load ptr, ptr @conf, align 8
  %14 = getelementptr inbounds nuw %struct.slurmd_config, ptr %13, i32 0, i32 30
  %15 = load i16, ptr %14, align 8
  %16 = zext i16 %15 to i32
  %17 = icmp sge i32 %12, %16
  br i1 %17, label %18, label %41

18:                                               ; preds = %10
  br label %19

19:                                               ; preds = %18
  br label %20

20:                                               ; preds = %19
  %21 = call i32 @slurm_get_log_level()
  %22 = icmp sge i32 %21, 7
  br i1 %22, label %23, label %30

23:                                               ; preds = %20
  %24 = load i16, ptr %4, align 2
  %25 = zext i16 %24 to i32
  %26 = load ptr, ptr @conf, align 8
  %27 = getelementptr inbounds nuw %struct.slurmd_config, ptr %26, i32 0, i32 30
  %28 = load i16, ptr %27, align 8
  %29 = zext i16 %28 to i32
  call void (i32, ptr, ...) @slurm_log_var(i32 noundef 7, ptr noundef @.str.40, ptr noundef @plugin_type, ptr noundef @__func__._block_map, i32 noundef %25, i32 noundef %29)
  br label %30

30:                                               ; preds = %23, %20
  br label %31

31:                                               ; preds = %30
  br label %32

32:                                               ; preds = %31
  %33 = load i16, ptr %4, align 2
  %34 = zext i16 %33 to i32
  %35 = load ptr, ptr @conf, align 8
  %36 = getelementptr inbounds nuw %struct.slurmd_config, ptr %35, i32 0, i32 30
  %37 = load i16, ptr %36, align 8
  %38 = zext i16 %37 to i32
  %39 = srem i32 %34, %38
  %40 = trunc i32 %39 to i16
  store i16 %40, ptr %4, align 2
  br label %41

41:                                               ; preds = %32, %10
  %42 = load ptr, ptr %5, align 8
  %43 = load i16, ptr %4, align 2
  %44 = zext i16 %43 to i64
  %45 = getelementptr inbounds nuw i16, ptr %42, i64 %44
  %46 = load i16, ptr %45, align 2
  store i16 %46, ptr %4, align 2
  %47 = load i16, ptr %4, align 2
  store i16 %47, ptr %3, align 2
  br label %48

48:                                               ; preds = %41, %8
  %49 = load i16, ptr %3, align 2
  ret i16 %49
}

; Function Attrs: nounwind uwtable
define internal ptr @_lllp_map_abstract_mask(ptr noundef %0) #0 {
  %2 = alloca ptr, align 8
  %3 = alloca i32, align 4
  %4 = alloca i32, align 4
  %5 = alloca i32, align 4
  %6 = alloca ptr, align 8
  store ptr %0, ptr %2, align 8
  call void @llvm.lifetime.start.p0(i64 4, ptr %3) #7
  call void @llvm.lifetime.start.p0(i64 4, ptr %4) #7
  call void @llvm.lifetime.start.p0(i64 4, ptr %5) #7
  %7 = load ptr, ptr %2, align 8
  %8 = call i64 @slurm_bit_size(ptr noundef %7)
  %9 = trunc i64 %8 to i32
  store i32 %9, ptr %5, align 4
  call void @llvm.lifetime.start.p0(i64 8, ptr %6) #7
  %10 = load i32, ptr %5, align 4
  %11 = sext i32 %10 to i64
  %12 = call ptr @slurm_bit_alloc(i64 noundef %11)
  store ptr %12, ptr %6, align 8
  store i32 0, ptr %3, align 4
  br label %13

13:                                               ; preds = %48, %1
  %14 = load i32, ptr %3, align 4
  %15 = load i32, ptr %5, align 4
  %16 = icmp slt i32 %14, %15
  br i1 %16, label %17, label %51

17:                                               ; preds = %13
  %18 = load ptr, ptr %2, align 8
  %19 = load i32, ptr %3, align 4
  %20 = sext i32 %19 to i64
  %21 = call i32 @slurm_bit_test(ptr noundef %18, i64 noundef %20)
  %22 = icmp ne i32 %21, 0
  br i1 %22, label %23, label %47

23:                                               ; preds = %17
  %24 = load i32, ptr %3, align 4
  %25 = trunc i32 %24 to i16
  %26 = load ptr, ptr @conf, align 8
  %27 = getelementptr inbounds nuw %struct.slurmd_config, ptr %26, i32 0, i32 31
  %28 = load ptr, ptr %27, align 8
  %29 = call zeroext i16 @_block_map(i16 noundef zeroext %25, ptr noundef %28)
  %30 = zext i16 %29 to i32
  store i32 %30, ptr %4, align 4
  %31 = load i32, ptr %4, align 4
  %32 = sext i32 %31 to i64
  %33 = load ptr, ptr %6, align 8
  %34 = call i64 @slurm_bit_size(ptr noundef %33)
  %35 = icmp slt i64 %32, %34
  br i1 %35, label %36, label %40

36:                                               ; preds = %23
  %37 = load ptr, ptr %6, align 8
  %38 = load i32, ptr %4, align 4
  %39 = sext i32 %38 to i64
  call void @slurm_bit_set(ptr noundef %37, i64 noundef %39)
  br label %46

40:                                               ; preds = %23
  %41 = load i32, ptr %3, align 4
  %42 = load i32, ptr %4, align 4
  %43 = load ptr, ptr %6, align 8
  %44 = call i64 @slurm_bit_size(ptr noundef %43)
  %45 = call i32 (ptr, ...) @slurm_error(ptr noundef @.str.39, i32 noundef %41, i32 noundef %42, i64 noundef %44)
  br label %46

46:                                               ; preds = %40, %36
  br label %47

47:                                               ; preds = %46, %17
  br label %48

48:                                               ; preds = %47
  %49 = load i32, ptr %3, align 4
  %50 = add nsw i32 %49, 1
  store i32 %50, ptr %3, align 4
  br label %13, !llvm.loop !49

51:                                               ; preds = %13
  %52 = load ptr, ptr %6, align 8
  call void @llvm.lifetime.end.p0(i64 8, ptr %6) #7
  call void @llvm.lifetime.end.p0(i64 4, ptr %5) #7
  call void @llvm.lifetime.end.p0(i64 4, ptr %4) #7
  call void @llvm.lifetime.end.p0(i64 4, ptr %3) #7
  ret ptr %52
}

; Function Attrs: nounwind uwtable
define internal void @_lllp_map_abstract_masks(i32 noundef %0, ptr noundef %1) #0 {
  %3 = alloca i32, align 4
  %4 = alloca ptr, align 8
  %5 = alloca i32, align 4
  %6 = alloca ptr, align 8
  %7 = alloca ptr, align 8
  store i32 %0, ptr %3, align 4
  store ptr %1, ptr %4, align 8
  call void @llvm.lifetime.start.p0(i64 4, ptr %5) #7
  br label %8

8:                                                ; preds = %2
  br label %9

9:                                                ; preds = %8
  %10 = call i32 @slurm_get_log_level()
  %11 = icmp sge i32 %10, 7
  br i1 %11, label %12, label %13

12:                                               ; preds = %9
  call void (i32, ptr, ...) @slurm_log_var(i32 noundef 7, ptr noundef @.str.38, ptr noundef @plugin_type, ptr noundef @__func__._lllp_map_abstract_masks)
  br label %13

13:                                               ; preds = %12, %9
  br label %14

14:                                               ; preds = %13
  br label %15

15:                                               ; preds = %14
  br label %16

16:                                               ; preds = %15
  br label %17

17:                                               ; preds = %16
  store i32 0, ptr %5, align 4
  br label %18

18:                                               ; preds = %46, %17
  %19 = load i32, ptr %5, align 4
  %20 = load i32, ptr %3, align 4
  %21 = icmp ult i32 %19, %20
  br i1 %21, label %22, label %49

22:                                               ; preds = %18
  call void @llvm.lifetime.start.p0(i64 8, ptr %6) #7
  %23 = load ptr, ptr %4, align 8
  %24 = load i32, ptr %5, align 4
  %25 = sext i32 %24 to i64
  %26 = getelementptr inbounds ptr, ptr %23, i64 %25
  %27 = load ptr, ptr %26, align 8
  store ptr %27, ptr %6, align 8
  %28 = load ptr, ptr %6, align 8
  %29 = icmp ne ptr %28, null
  br i1 %29, label %30, label %45

30:                                               ; preds = %22
  call void @llvm.lifetime.start.p0(i64 8, ptr %7) #7
  %31 = load ptr, ptr %6, align 8
  %32 = call ptr @_lllp_map_abstract_mask(ptr noundef %31)
  store ptr %32, ptr %7, align 8
  br label %33

33:                                               ; preds = %30
  %34 = load ptr, ptr %6, align 8
  %35 = icmp ne ptr %34, null
  br i1 %35, label %36, label %37

36:                                               ; preds = %33
  call void @slurm_bit_free(ptr noundef %6)
  br label %37

37:                                               ; preds = %36, %33
  store ptr null, ptr %6, align 8
  br label %38

38:                                               ; preds = %37
  br label %39

39:                                               ; preds = %38
  %40 = load ptr, ptr %7, align 8
  %41 = load ptr, ptr %4, align 8
  %42 = load i32, ptr %5, align 4
  %43 = sext i32 %42 to i64
  %44 = getelementptr inbounds ptr, ptr %41, i64 %43
  store ptr %40, ptr %44, align 8
  call void @llvm.lifetime.end.p0(i64 8, ptr %7) #7
  br label %45

45:                                               ; preds = %39, %22
  call void @llvm.lifetime.end.p0(i64 8, ptr %6) #7
  br label %46

46:                                               ; preds = %45
  %47 = load i32, ptr %5, align 4
  %48 = add nsw i32 %47, 1
  store i32 %48, ptr %5, align 4
  br label %18, !llvm.loop !16

49:                                               ; preds = %18
  call void @llvm.lifetime.end.p0(i64 4, ptr %5) #7
  ret void
}