; Function Attrs: nounwind uwtable
define internal fastcc void @_lllp_map_abstract_masks(i32 noundef range(i32 0, 65536) %0, ptr noundef captures(none) %1) unnamed_addr #0 {
  %3 = alloca ptr, align 8
  %4 = tail call i32 @slurm_get_log_level() #7
  %5 = icmp sgt i32 %4, 6
  br i1 %5, label %6, label %7

6:                                                ; preds = %2
  tail call void (i32, ptr, ...) @slurm_log_var(i32 noundef 7, ptr noundef nonnull @.str.38, ptr noundef nonnull @plugin_type, ptr noundef nonnull @__func__._lllp_map_abstract_masks) #7
  br label %7

7:                                                ; preds = %6, %2
  %.not10 = icmp eq i32 %0, 0
  br i1 %.not10, label %._crit_edge, label %.lr.ph.preheader

.lr.ph.preheader:                                 ; preds = %7
  %wide.trip.count = zext nneg i32 %0 to i64
  br label %.lr.ph

.lr.ph:                                           ; preds = %.lr.ph.preheader, %57
  %indvars.iv = phi i64 [ 0, %.lr.ph.preheader ], [ %indvars.iv.next, %57 ]
  call void @llvm.lifetime.start.p0(i64 8, ptr nonnull %3) #7
  %8 = getelementptr inbounds nuw ptr, ptr %1, i64 %indvars.iv
  %9 = load ptr, ptr %8, align 8
  store ptr %9, ptr %3, align 8
  %.not = icmp eq ptr %9, null
  br i1 %.not, label %57, label %10

10:                                               ; preds = %.lr.ph
  %11 = call i64 @slurm_bit_size(ptr noundef nonnull %9) #7
  %12 = trunc i64 %11 to i32
  %sext.i = shl i64 %11, 32
  %13 = ashr exact i64 %sext.i, 32
  %14 = call ptr @slurm_bit_alloc(i64 noundef %13) #7
  %15 = icmp sgt i32 %12, 0
  br i1 %15, label %.lr.ph.preheader.i, label %_lllp_map_abstract_mask.exit

.lr.ph.preheader.i:                               ; preds = %10
  %wide.trip.count.i = and i64 %11, 2147483647
  br label %.lr.ph.i

.lr.ph.i:                                         ; preds = %53, %.lr.ph.preheader.i
  %indvars.iv.i = phi i64 [ 0, %.lr.ph.preheader.i ], [ %indvars.iv.next.i, %53 ]
  %16 = call i32 @slurm_bit_test(ptr noundef nonnull %9, i64 noundef %indvars.iv.i) #7
  %.not.i = icmp eq i32 %16, 0
  br i1 %.not.i, label %53, label %17

17:                                               ; preds = %.lr.ph.i
  %18 = trunc nuw nsw i64 %indvars.iv.i to i32
  %19 = trunc i64 %indvars.iv.i to i16
  %20 = load ptr, ptr @conf, align 8
  %21 = getelementptr inbounds nuw i8, ptr %20, i64 4240
  %22 = load ptr, ptr %21, align 8
  %23 = icmp eq ptr %22, null
  br i1 %23, label %_block_map.exit.i, label %24

24:                                               ; preds = %17
  %25 = and i32 %18, 65535
  %26 = getelementptr inbounds nuw i8, ptr %20, i64 4232
  %27 = load i16, ptr %26, align 8
  %.not.i.i = icmp ugt i16 %27, %19
  br i1 %.not.i.i, label %41, label %28

28:                                               ; preds = %24
  %29 = call i32 @slurm_get_log_level() #7
  %30 = icmp sgt i32 %29, 6
  br i1 %30, label %31, label %36

31:                                               ; preds = %28
  %32 = load ptr, ptr @conf, align 8
  %33 = getelementptr inbounds nuw i8, ptr %32, i64 4232
  %34 = load i16, ptr %33, align 8
  %35 = zext i16 %34 to i32
  call void (i32, ptr, ...) @slurm_log_var(i32 noundef 7, ptr noundef nonnull @.str.40, ptr noundef nonnull @plugin_type, ptr noundef nonnull @__func__._block_map, i32 noundef %25, i32 noundef %35) #7
  br label %36

36:                                               ; preds = %31, %28
  %37 = load ptr, ptr @conf, align 8
  %38 = getelementptr inbounds nuw i8, ptr %37, i64 4232
  %39 = load i16, ptr %38, align 8
  %40 = urem i16 %19, %39
  br label %41

41:                                               ; preds = %36, %24
  %.08.i.i = phi i16 [ %40, %36 ], [ %19, %24 ]
  %42 = zext i16 %.08.i.i to i64
  %43 = getelementptr inbounds nuw i16, ptr %22, i64 %42
  %44 = load i16, ptr %43, align 2
  br label %_block_map.exit.i

_block_map.exit.i:                                ; preds = %41, %17
  %.0.i.i = phi i16 [ %44, %41 ], [ %19, %17 ]
  %45 = zext i16 %.0.i.i to i64
  %46 = call i64 @slurm_bit_size(ptr noundef %14) #7
  %47 = icmp sgt i64 %46, %45
  br i1 %47, label %48, label %49

48:                                               ; preds = %_block_map.exit.i
  call void @slurm_bit_set(ptr noundef %14, i64 noundef %45) #7
  br label %53

49:                                               ; preds = %_block_map.exit.i
  %50 = zext i16 %.0.i.i to i32
  %51 = call i64 @slurm_bit_size(ptr noundef %14) #7
  %52 = call i32 (ptr, ...) @slurm_error(ptr noundef nonnull @.str.39, i32 noundef %18, i32 noundef %50, i64 noundef %51) #7
  br label %53

53:                                               ; preds = %49, %48, %.lr.ph.i
  %indvars.iv.next.i = add nuw nsw i64 %indvars.iv.i, 1
  %exitcond.not.i = icmp eq i64 %indvars.iv.next.i, %wide.trip.count.i
  br i1 %exitcond.not.i, label %_lllp_map_abstract_mask.exit, label %.lr.ph.i, !llvm.loop !18

_lllp_map_abstract_mask.exit:                     ; preds = %53, %10
  %54 = load ptr, ptr %3, align 8
  %.not8 = icmp eq ptr %54, null
  br i1 %.not8, label %56, label %55

55:                                               ; preds = %_lllp_map_abstract_mask.exit
  call void @slurm_bit_free(ptr noundef nonnull %3) #7
  br label %56

56:                                               ; preds = %55, %_lllp_map_abstract_mask.exit
  store ptr %14, ptr %8, align 8
  br label %57

57:                                               ; preds = %56, %.lr.ph
  call void @llvm.lifetime.end.p0(i64 8, ptr nonnull %3) #7
  %indvars.iv.next = add nuw nsw i64 %indvars.iv, 1
  %exitcond.not = icmp eq i64 %indvars.iv.next, %wide.trip.count
  br i1 %exitcond.not, label %._crit_edge, label %.lr.ph, !llvm.loop !19

._crit_edge:                                      ; preds = %57, %7
  ret void
}